target datalayout = "e-m:e-p270:32:32-p271:32:32-p272:64:64-i64:64-i128:128-f80:128-n8:16:32:64-S128"
target triple = "x86_64-pc-linux-gnu"

@.str = private unnamed_addr constant [2 x i8] c"+\00", align 1

; Function Attrs: mustprogress nounwind uwtable
define hidden void @_ZNK11mpn_manager8trace_nlEPKjj(ptr noundef nonnull align 1 dereferenceable(1) %0, ptr noundef %1, i32 noundef %2) #6 align 2 {
  %4 = alloca ptr, align 8
  %5 = alloca ptr, align 8
  %6 = alloca i32, align 4
  store ptr %0, ptr %4, align 8, !tbaa !3
  store ptr %1, ptr %5, align 8, !tbaa !8
  store i32 %2, ptr %6, align 4, !tbaa !10
  ret void
}

; Function Attrs: inlinehint mustprogress nounwind uwtable
define linkonce_odr noundef nonnull align 4 dereferenceable(4) ptr @_ZSt3maxIjERKT_S2_S2_(ptr noundef nonnull align 4 dereferenceable(4) %0, ptr noundef nonnull align 4 dereferenceable(4) %1) #7 comdat {
  %3 = alloca ptr, align 8
  %4 = alloca ptr, align 8
  %5 = alloca ptr, align 8
  store ptr %0, ptr %4, align 8, !tbaa !8
  store ptr %1, ptr %5, align 8, !tbaa !8
  %6 = load ptr, ptr %4, align 8, !tbaa !8
  %7 = load i32, ptr %6, align 4, !tbaa !10
  %8 = load ptr, ptr %5, align 8, !tbaa !8
  %9 = load i32, ptr %8, align 4, !tbaa !10
  %10 = icmp ult i32 %7, %9
  br i1 %10, label %11, label %13

11:                                               ; preds = %2
  %12 = load ptr, ptr %5, align 8, !tbaa !8
  store ptr %12, ptr %3, align 8
  br label %15

13:                                               ; preds = %2
  %14 = load ptr, ptr %4, align 8, !tbaa !8
  store ptr %14, ptr %3, align 8
  br label %15

15:                                               ; preds = %13, %11
  %16 = load ptr, ptr %3, align 8
  ret ptr %16
}

; Function Attrs: mustprogress nounwind uwtable
define hidden void @_ZNK11mpn_manager5traceEPKjjS1_jPKc(ptr noundef nonnull align 1 dereferenceable(1) %0, ptr noundef %1, i32 noundef %2, ptr noundef %3, i32 noundef %4, ptr noundef %5) #6 align 2 {
  %7 = alloca ptr, align 8
  %8 = alloca ptr, align 8
  %9 = alloca i32, align 4
  %10 = alloca ptr, align 8
  %11 = alloca i32, align 4
  %12 = alloca ptr, align 8
  store ptr %0, ptr %7, align 8, !tbaa !3
  store ptr %1, ptr %8, align 8, !tbaa !8
  store i32 %2, ptr %9, align 4, !tbaa !10
  store ptr %3, ptr %10, align 8, !tbaa !8
  store i32 %4, ptr %11, align 4, !tbaa !10
  store ptr %5, ptr %12, align 8, !tbaa !20
  ret void
}

; Function Attrs: mustprogress uwtable
define hidden noundef zeroext i1 @_ZNK11mpn_manager3addEPKjjS1_jPjjS2_(ptr noundef nonnull align 1 dereferenceable(1) %0, ptr noundef %1, i32 noundef %2, ptr noundef %3, i32 noundef %4, ptr noundef %5, i32 noundef %6, ptr noundef %7) #4 align 2 {
  %9 = alloca ptr, align 8
  %10 = alloca ptr, align 8
  %11 = alloca i32, align 4
  %12 = alloca ptr, align 8
  %13 = alloca i32, align 4
  %14 = alloca ptr, align 8
  %15 = alloca i32, align 4
  %16 = alloca ptr, align 8
  %17 = alloca i32, align 4
  %18 = alloca i32, align 4
  %19 = alloca i32, align 4
  %20 = alloca i8, align 1
  %21 = alloca i8, align 1
  %22 = alloca i32, align 4
  %23 = alloca i32, align 4
  %24 = alloca i32, align 4
  %25 = alloca ptr, align 8
  store ptr %0, ptr %9, align 8, !tbaa !3
  store ptr %1, ptr %10, align 8, !tbaa !8
  store i32 %2, ptr %11, align 4, !tbaa !10
  store ptr %3, ptr %12, align 8, !tbaa !8
  store i32 %4, ptr %13, align 4, !tbaa !10
  store ptr %5, ptr %14, align 8, !tbaa !8
  store i32 %6, ptr %15, align 4, !tbaa !10
  store ptr %7, ptr %16, align 8, !tbaa !8
  %26 = load ptr, ptr %9, align 8
  %27 = load ptr, ptr %10, align 8, !tbaa !8
  %28 = load i32, ptr %11, align 4, !tbaa !10
  %29 = load ptr, ptr %12, align 8, !tbaa !8
  %30 = load i32, ptr %13, align 4, !tbaa !10
  call void @_ZNK11mpn_manager5traceEPKjjS1_jPKc(ptr noundef nonnull align 1 dereferenceable(1) %26, ptr noundef %27, i32 noundef %28, ptr noundef %29, i32 noundef %30, ptr noundef @.str)
  call void @llvm.lifetime.start.p0(i64 4, ptr %17) #3
  %31 = call noundef nonnull align 4 dereferenceable(4) ptr @_ZSt3maxIjERKT_S2_S2_(ptr noundef nonnull align 4 dereferenceable(4) %11, ptr noundef nonnull align 4 dereferenceable(4) %13)
  %32 = load i32, ptr %31, align 4, !tbaa !10
  store i32 %32, ptr %17, align 4, !tbaa !10
  call void @llvm.lifetime.start.p0(i64 4, ptr %18) #3
  store i32 0, ptr %18, align 4, !tbaa !10
  call void @llvm.lifetime.start.p0(i64 4, ptr %19) #3
  call void @llvm.lifetime.start.p0(i64 1, ptr %20) #3
  call void @llvm.lifetime.start.p0(i64 1, ptr %21) #3
  call void @llvm.lifetime.start.p0(i64 4, ptr %22) #3
  store i32 0, ptr %22, align 4, !tbaa !10
  br label %33

33:                                               ; preds = %92, %8
  %34 = load i32, ptr %22, align 4, !tbaa !10
  %35 = load i32, ptr %17, align 4, !tbaa !10
  %36 = icmp ult i32 %34, %35
  br i1 %36, label %38, label %37

37:                                               ; preds = %33
  call void @llvm.lifetime.end.p0(i64 4, ptr %22) #3
  br label %95

38:                                               ; preds = %33
  call void @llvm.lifetime.start.p0(i64 4, ptr %23) #3
  %39 = load i32, ptr %22, align 4, !tbaa !10
  %40 = load i32, ptr %11, align 4, !tbaa !10
  %41 = icmp ult i32 %39, %40
  br i1 %41, label %42, label %48

42:                                               ; preds = %38
  %43 = load ptr, ptr %10, align 8, !tbaa !8
  %44 = load i32, ptr %22, align 4, !tbaa !10
  %45 = zext i32 %44 to i64
  %46 = getelementptr inbounds nuw i32, ptr %43, i64 %45
  %47 = load i32, ptr %46, align 4, !tbaa !10
  br label %49

48:                                               ; preds = %38
  br label %49

49:                                               ; preds = %48, %42
  %50 = phi i32 [ %47, %42 ], [ 0, %48 ]
  store i32 %50, ptr %23, align 4, !tbaa !10
  call void @llvm.lifetime.start.p0(i64 4, ptr %24) #3
  %51 = load i32, ptr %22, align 4, !tbaa !10
  %52 = load i32, ptr %13, align 4, !tbaa !10
  %53 = icmp ult i32 %51, %52
  br i1 %53, label %54, label %60

54:                                               ; preds = %49
  %55 = load ptr, ptr %12, align 8, !tbaa !8
  %56 = load i32, ptr %22, align 4, !tbaa !10
  %57 = zext i32 %56 to i64
  %58 = getelementptr inbounds nuw i32, ptr %55, i64 %57
  %59 = load i32, ptr %58, align 4, !tbaa !10
  br label %61

60:                                               ; preds = %49
  br label %61

61:                                               ; preds = %60, %54
  %62 = phi i32 [ %59, %54 ], [ 0, %60 ]
  store i32 %62, ptr %24, align 4, !tbaa !10
  %63 = load i32, ptr %23, align 4, !tbaa !10
  %64 = load i32, ptr %24, align 4, !tbaa !10
  %65 = add i32 %63, %64
  store i32 %65, ptr %19, align 4, !tbaa !10
  %66 = load i32, ptr %19, align 4, !tbaa !10
  %67 = load i32, ptr %23, align 4, !tbaa !10
  %68 = icmp ult i32 %66, %67
  %69 = zext i1 %68 to i8
  store i8 %69, ptr %20, align 1, !tbaa !14
  %70 = load i32, ptr %19, align 4, !tbaa !10
  %71 = load i32, ptr %18, align 4, !tbaa !10
  %72 = add i32 %70, %71
  %73 = load ptr, ptr %14, align 8, !tbaa !8
  %74 = load i32, ptr %22, align 4, !tbaa !10
  %75 = zext i32 %74 to i64
  %76 = getelementptr inbounds nuw i32, ptr %73, i64 %75
  store i32 %72, ptr %76, align 4, !tbaa !10
  %77 = load ptr, ptr %14, align 8, !tbaa !8
  %78 = load i32, ptr %22, align 4, !tbaa !10
  %79 = zext i32 %78 to i64
  %80 = getelementptr inbounds nuw i32, ptr %77, i64 %79
  %81 = load i32, ptr %80, align 4, !tbaa !10
  %82 = load i32, ptr %19, align 4, !tbaa !10
  %83 = icmp ult i32 %81, %82
  %84 = zext i1 %83 to i8
  store i8 %84, ptr %21, align 1, !tbaa !14
  %85 = load i8, ptr %20, align 1, !tbaa !14, !range !16, !noundef !17
  %86 = trunc i8 %85 to i1
  %87 = zext i1 %86 to i32
  %88 = load i8, ptr %21, align 1, !tbaa !14, !range !16, !noundef !17
  %89 = trunc i8 %88 to i1
  %90 = zext i1 %89 to i32
  %91 = or i32 %87, %90
  store i32 %91, ptr %18, align 4, !tbaa !10
  call void @llvm.lifetime.end.p0(i64 4, ptr %24) #3
  call void @llvm.lifetime.end.p0(i64 4, ptr %23) #3
  br label %92

92:                                               ; preds = %61
  %93 = load i32, ptr %22, align 4, !tbaa !10
  %94 = add i32 %93, 1
  store i32 %94, ptr %22, align 4, !tbaa !10
  br label %33, !llvm.loop !18

95:                                               ; preds = %37
  %96 = load i32, ptr %18, align 4, !tbaa !10
  %97 = load ptr, ptr %14, align 8, !tbaa !8
  %98 = load i32, ptr %17, align 4, !tbaa !10
  %99 = zext i32 %98 to i64
  %100 = getelementptr inbounds nuw i32, ptr %97, i64 %99
  store i32 %96, ptr %100, align 4, !tbaa !10
  call void @llvm.lifetime.start.p0(i64 8, ptr %25) #3
  %101 = load ptr, ptr %16, align 8, !tbaa !8
  store ptr %101, ptr %25, align 8, !tbaa !8
  %102 = load i32, ptr %17, align 4, !tbaa !10
  %103 = add i32 %102, 1
  %104 = load ptr, ptr %25, align 8, !tbaa !8
  store i32 %103, ptr %104, align 4, !tbaa !10
  br label %105

105:                                              ; preds = %120, %95
  %106 = load ptr, ptr %25, align 8, !tbaa !8
  %107 = load i32, ptr %106, align 4, !tbaa !10
  %108 = icmp ugt i32 %107, 1
  br i1 %108, label %109, label %118

109:                                              ; preds = %105
  %110 = load ptr, ptr %14, align 8, !tbaa !8
  %111 = load ptr, ptr %25, align 8, !tbaa !8
  %112 = load i32, ptr %111, align 4, !tbaa !10
  %113 = sub i32 %112, 1
  %114 = zext i32 %113 to i64
  %115 = getelementptr inbounds nuw i32, ptr %110, i64 %114
  %116 = load i32, ptr %115, align 4, !tbaa !10
  %117 = icmp eq i32 %116, 0
  br label %118

118:                                              ; preds = %109, %105
  %119 = phi i1 [ false, %105 ], [ %117, %109 ]
  br i1 %119, label %120, label %124

120:                                              ; preds = %118
  %121 = load ptr, ptr %25, align 8, !tbaa !8
  %122 = load i32, ptr %121, align 4, !tbaa !10
  %123 = add i32 %122, -1
  store i32 %123, ptr %121, align 4, !tbaa !10
  br label %105, !llvm.loop !19

124:                                              ; preds = %118
  %125 = load ptr, ptr %14, align 8, !tbaa !8
  %126 = load ptr, ptr %25, align 8, !tbaa !8
  %127 = load i32, ptr %126, align 4, !tbaa !10
  call void @_ZNK11mpn_manager8trace_nlEPKjj(ptr noundef nonnull align 1 dereferenceable(1) %26, ptr noundef %125, i32 noundef %127)
  call void @llvm.lifetime.end.p0(i64 8, ptr %25) #3
  call void @llvm.lifetime.end.p0(i64 1, ptr %21) #3
  call void @llvm.lifetime.end.p0(i64 1, ptr %20) #3
  call void @llvm.lifetime.end.p0(i64 4, ptr %19) #3
  call void @llvm.lifetime.end.p0(i64 4, ptr %18) #3
  call void @llvm.lifetime.end.p0(i64 4, ptr %17) #3
  ret i1 true
}