; Function Attrs: mustprogress nofree norecurse nosync nounwind memory(argmem: readwrite) uwtable
define hidden noundef zeroext i1 @_ZNK11mpn_manager3addEPKjjS1_jPjjS2_(ptr noundef nonnull readnone align 1 captures(none) dereferenceable(1) %0, ptr noundef readonly captures(none) %1, i32 noundef %2, ptr noundef readonly captures(none) %3, i32 noundef %4, ptr noundef captures(none) %5, i32 noundef %6, ptr noundef writeonly captures(none) %7) local_unnamed_addr #6 align 2 {
  %.sroa.speculated = tail call i32 @llvm.umax.i32(i32 %2, i32 %4)
  %.not = icmp eq i32 %.sroa.speculated, 0
  br i1 %.not, label %._crit_edge, label %.lr.ph.preheader

.lr.ph.preheader:                                 ; preds = %8
  %9 = zext i32 %2 to i64
  %10 = zext i32 %4 to i64
  %wide.trip.count = zext i32 %.sroa.speculated to i64
  br label %.lr.ph

._crit_edge:                                      ; preds = %24, %8
  %.pre-phi = phi i64 [ 0, %8 ], [ %wide.trip.count, %24 ]
  %.0.lcssa = phi i32 [ 0, %8 ], [ %32, %24 ]
  %11 = getelementptr inbounds nuw i32, ptr %5, i64 %.pre-phi
  store i32 %.0.lcssa, ptr %11, align 4, !tbaa !3
  %12 = add i32 %.sroa.speculated, 1
  %13 = zext i32 %12 to i64
  br label %33

.lr.ph:                                           ; preds = %.lr.ph.preheader, %24
  %indvars.iv = phi i64 [ 0, %.lr.ph.preheader ], [ %indvars.iv.next, %24 ]
  %.046 = phi i32 [ 0, %.lr.ph.preheader ], [ %32, %24 ]
  %14 = icmp samesign ult i64 %indvars.iv, %9
  br i1 %14, label %15, label %18

15:                                               ; preds = %.lr.ph
  %16 = getelementptr inbounds nuw i32, ptr %1, i64 %indvars.iv
  %17 = load i32, ptr %16, align 4, !tbaa !3
  br label %18

18:                                               ; preds = %.lr.ph, %15
  %19 = phi i32 [ %17, %15 ], [ 0, %.lr.ph ]
  %20 = icmp samesign ult i64 %indvars.iv, %10
  br i1 %20, label %21, label %24

21:                                               ; preds = %18
  %22 = getelementptr inbounds nuw i32, ptr %3, i64 %indvars.iv
  %23 = load i32, ptr %22, align 4, !tbaa !3
  br label %24

24:                                               ; preds = %18, %21
  %25 = phi i32 [ %23, %21 ], [ 0, %18 ]
  %26 = add i32 %25, %19
  %27 = icmp ult i32 %26, %19
  %28 = add i32 %26, %.046
  %29 = getelementptr inbounds nuw i32, ptr %5, i64 %indvars.iv
  store i32 %28, ptr %29, align 4, !tbaa !3
  %30 = icmp ult i32 %28, %26
  %31 = or i1 %27, %30
  %32 = zext i1 %31 to i32
  %indvars.iv.next = add nuw nsw i64 %indvars.iv, 1
  %exitcond.not = icmp eq i64 %indvars.iv.next, %wide.trip.count
  br i1 %exitcond.not, label %._crit_edge, label %.lr.ph, !llvm.loop !9

33:                                               ; preds = %36, %._crit_edge
  %indvars.iv48 = phi i64 [ %37, %36 ], [ %13, %._crit_edge ]
  %34 = trunc nuw i64 %indvars.iv48 to i32
  store i32 %34, ptr %7, align 4, !tbaa !3
  %35 = icmp ugt i64 %indvars.iv48, 1
  br i1 %35, label %36, label %.critedge

36:                                               ; preds = %33
  %37 = add nsw i64 %indvars.iv48, -1
  %38 = getelementptr inbounds nuw i32, ptr %5, i64 %37
  %39 = load i32, ptr %38, align 4, !tbaa !3
  %40 = icmp eq i32 %39, 0
  br i1 %40, label %33, label %.critedge, !llvm.loop !10

.critedge:                                        ; preds = %33, %36
  ret i1 true
}